target datalayout = "e-m:e-p270:32:32-p271:32:32-p272:64:64-i64:64-i128:128-f80:128-n8:16:32:64-S128"
target triple = "x86_64-pc-linux-gnu"

%struct._object = type { %union.anon, ptr }
%union.anon = type { i64 }
%struct._curses_panel_state = type { ptr, ptr }
%struct.PyCursesPanelObject = type { %struct._object, ptr, ptr }

@_Py_NoneStruct = external global %struct._object, align 8
@catchall_ERR = internal constant [29 x i8] c"curses function returned ERR\00", align 16
@.str.33 = private unnamed_addr constant [18 x i8] c"%s() returned ERR\00", align 1
@.str.36 = private unnamed_addr constant [11 x i8] c"move_panel\00", align 1

; Function Attrs: nounwind uwtable
define internal ptr @PyCursesCheckERR(ptr noundef %0, i32 noundef %1, ptr noundef %2) #0 {
  %4 = alloca ptr, align 8
  %5 = alloca ptr, align 8
  %6 = alloca i32, align 4
  %7 = alloca ptr, align 8
  store ptr %0, ptr %5, align 8, !tbaa !8
  store i32 %1, ptr %6, align 4, !tbaa !9
  store ptr %2, ptr %7, align 8, !tbaa !50
  %8 = load i32, ptr %6, align 4, !tbaa !9
  %9 = icmp ne i32 %8, -1
  br i1 %9, label %10, label %11

10:                                               ; preds = %3
  store ptr @_Py_NoneStruct, ptr %4, align 8
  br label %25

11:                                               ; preds = %3
  %12 = load ptr, ptr %7, align 8, !tbaa !50
  %13 = icmp eq ptr %12, null
  br i1 %13, label %14, label %18

14:                                               ; preds = %11
  %15 = load ptr, ptr %5, align 8, !tbaa !8
  %16 = getelementptr inbounds nuw %struct._curses_panel_state, ptr %15, i32 0, i32 0
  %17 = load ptr, ptr %16, align 8, !tbaa !11
  call void @PyErr_SetString(ptr noundef %17, ptr noundef @catchall_ERR)
  br label %24

18:                                               ; preds = %11
  %19 = load ptr, ptr %5, align 8, !tbaa !8
  %20 = getelementptr inbounds nuw %struct._curses_panel_state, ptr %19, i32 0, i32 0
  %21 = load ptr, ptr %20, align 8, !tbaa !11
  %22 = load ptr, ptr %7, align 8, !tbaa !50
  %23 = call ptr (ptr, ptr, ...) @PyErr_Format(ptr noundef %21, ptr noundef @.str.33, ptr noundef %22)
  br label %24

24:                                               ; preds = %18, %14
  store ptr null, ptr %4, align 8
  br label %25

25:                                               ; preds = %24, %10
  %26 = load ptr, ptr %4, align 8
  ret ptr %26
}

; Function Attrs: nounwind uwtable
define internal ptr @_curses_panel_panel_move_impl(ptr noundef %0, ptr noundef %1, i32 noundef %2, i32 noundef %3) #0 {
  %5 = alloca ptr, align 8
  %6 = alloca ptr, align 8
  %7 = alloca i32, align 4
  %8 = alloca i32, align 4
  %9 = alloca ptr, align 8
  store ptr %0, ptr %5, align 8, !tbaa !8
  store ptr %1, ptr %6, align 8, !tbaa !19
  store i32 %2, ptr %7, align 4, !tbaa !9
  store i32 %3, ptr %8, align 4, !tbaa !9
  call void @llvm.lifetime.start.p0(i64 8, ptr %9) #5
  %10 = load ptr, ptr %6, align 8, !tbaa !19
  %11 = call ptr @PyType_GetModuleState(ptr noundef %10)
  store ptr %11, ptr %9, align 8, !tbaa !8
  %12 = load ptr, ptr %9, align 8, !tbaa !8
  %13 = load ptr, ptr %5, align 8, !tbaa !8
  %14 = getelementptr inbounds nuw %struct.PyCursesPanelObject, ptr %13, i32 0, i32 1
  %15 = load ptr, ptr %14, align 8, !tbaa !36
  %16 = load i32, ptr %7, align 4, !tbaa !9
  %17 = load i32, ptr %8, align 4, !tbaa !9
  %18 = call i32 @move_panel(ptr noundef %15, i32 noundef %16, i32 noundef %17)
  %19 = call ptr @PyCursesCheckERR(ptr noundef %12, i32 noundef %18, ptr noundef @.str.36)
  call void @llvm.lifetime.end.p0(i64 8, ptr %9) #5
  ret ptr %19
}

; Function Attrs: nounwind uwtable
define internal ptr @_curses_panel_panel_move(ptr noundef %0, ptr noundef %1, ptr noundef %2, i64 noundef %3, ptr noundef %4) #0 {
  %6 = alloca ptr, align 8
  %7 = alloca ptr, align 8
  %8 = alloca ptr, align 8
  %9 = alloca i64, align 8
  %10 = alloca ptr, align 8
  %11 = alloca ptr, align 8
  %12 = alloca [2 x ptr], align 16
  %13 = alloca i32, align 4
  %14 = alloca i32, align 4
  store ptr %0, ptr %6, align 8, !tbaa !3
  store ptr %1, ptr %7, align 8, !tbaa !19
  store ptr %2, ptr %8, align 8, !tbaa !15
  store i64 %3, ptr %9, align 8, !tbaa !48
  store ptr %4, ptr %10, align 8, !tbaa !3
  call void @llvm.lifetime.start.p0(i64 8, ptr %11) #5
  store ptr null, ptr %11, align 8, !tbaa !3
  call void @llvm.lifetime.start.p0(i64 16, ptr %12) #5
  call void @llvm.lifetime.start.p0(i64 4, ptr %13) #5
  call void @llvm.lifetime.start.p0(i64 4, ptr %14) #5
  %15 = load ptr, ptr %10, align 8, !tbaa !3
  %16 = icmp eq ptr %15, null
  br i1 %16, label %17, label %28

17:                                               ; preds = %5
  %18 = load i64, ptr %9, align 8, !tbaa !48
  %19 = icmp sle i64 2, %18
  br i1 %19, label %20, label %28

20:                                               ; preds = %17
  %21 = load i64, ptr %9, align 8, !tbaa !48
  %22 = icmp sle i64 %21, 2
  br i1 %22, label %23, label %28

23:                                               ; preds = %20
  %24 = load ptr, ptr %8, align 8, !tbaa !15
  %25 = icmp ne ptr %24, null
  br i1 %25, label %26, label %28

26:                                               ; preds = %23
  %27 = load ptr, ptr %8, align 8, !tbaa !15
  br label %34

28:                                               ; preds = %23, %20, %17, %5
  %29 = load ptr, ptr %8, align 8, !tbaa !15
  %30 = load i64, ptr %9, align 8, !tbaa !48
  %31 = load ptr, ptr %10, align 8, !tbaa !3
  %32 = getelementptr inbounds [2 x ptr], ptr %12, i64 0, i64 0
  %33 = call ptr @_PyArg_UnpackKeywords(ptr noundef %29, i64 noundef %30, ptr noundef null, ptr noundef %31, ptr noundef @_curses_panel_panel_move._parser, i32 noundef 2, i32 noundef 2, i32 noundef 0, i32 noundef 0, ptr noundef %32)
  br label %34

34:                                               ; preds = %28, %26
  %35 = phi ptr [ %27, %26 ], [ %33, %28 ]
  store ptr %35, ptr %8, align 8, !tbaa !15
  %36 = load ptr, ptr %8, align 8, !tbaa !15
  %37 = icmp ne ptr %36, null
  br i1 %37, label %39, label %38

38:                                               ; preds = %34
  br label %67

39:                                               ; preds = %34
  %40 = load ptr, ptr %8, align 8, !tbaa !15
  %41 = getelementptr ptr, ptr %40, i64 0
  %42 = load ptr, ptr %41, align 8, !tbaa !3
  %43 = call i32 @PyLong_AsInt(ptr noundef %42)
  store i32 %43, ptr %13, align 4, !tbaa !9
  %44 = load i32, ptr %13, align 4, !tbaa !9
  %45 = icmp eq i32 %44, -1
  br i1 %45, label %46, label %50

46:                                               ; preds = %39
  %47 = call ptr @PyErr_Occurred()
  %48 = icmp ne ptr %47, null
  br i1 %48, label %49, label %50

49:                                               ; preds = %46
  br label %67

50:                                               ; preds = %46, %39
  %51 = load ptr, ptr %8, align 8, !tbaa !15
  %52 = getelementptr ptr, ptr %51, i64 1
  %53 = load ptr, ptr %52, align 8, !tbaa !3
  %54 = call i32 @PyLong_AsInt(ptr noundef %53)
  store i32 %54, ptr %14, align 4, !tbaa !9
  %55 = load i32, ptr %14, align 4, !tbaa !9
  %56 = icmp eq i32 %55, -1
  br i1 %56, label %57, label %61

57:                                               ; preds = %50
  %58 = call ptr @PyErr_Occurred()
  %59 = icmp ne ptr %58, null
  br i1 %59, label %60, label %61

60:                                               ; preds = %57
  br label %67

61:                                               ; preds = %57, %50
  %62 = load ptr, ptr %6, align 8, !tbaa !3
  %63 = load ptr, ptr %7, align 8, !tbaa !19
  %64 = load i32, ptr %13, align 4, !tbaa !9
  %65 = load i32, ptr %14, align 4, !tbaa !9
  %66 = call ptr @_curses_panel_panel_move_impl(ptr noundef %62, ptr noundef %63, i32 noundef %64, i32 noundef %65)
  store ptr %66, ptr %11, align 8, !tbaa !3
  br label %67

67:                                               ; preds = %61, %60, %49, %38
  %68 = load ptr, ptr %11, align 8, !tbaa !3
  call void @llvm.lifetime.end.p0(i64 4, ptr %14) #5
  call void @llvm.lifetime.end.p0(i64 4, ptr %13) #5
  call void @llvm.lifetime.end.p0(i64 16, ptr %12) #5
  call void @llvm.lifetime.end.p0(i64 8, ptr %11) #5
  ret ptr %68
}