; Function Attrs: nounwind uwtable
define internal noundef ptr @_curses_panel_panel_move(ptr noundef readonly captures(none) %0, ptr noundef %1, ptr noundef %2, i64 noundef %3, ptr noundef %4) #0 {
  %6 = alloca [2 x ptr], align 16
  call void @llvm.lifetime.start.p0(i64 16, ptr nonnull %6) #4
  %7 = icmp eq ptr %4, null
  %8 = icmp eq i64 %3, 2
  %or.cond3 = and i1 %8, %7
  %9 = icmp ne ptr %2, null
  %or.cond5 = and i1 %9, %or.cond3
  br i1 %or.cond5, label %.thread, label %10

10:                                               ; preds = %5
  %11 = call ptr @_PyArg_UnpackKeywords(ptr noundef %2, i64 noundef %3, ptr noundef null, ptr noundef %4, ptr noundef nonnull @_curses_panel_panel_move._parser, i32 noundef 2, i32 noundef 2, i32 noundef 0, i32 noundef 0, ptr noundef nonnull %6) #4
  %.not = icmp eq ptr %11, null
  br i1 %.not, label %_curses_panel_panel_move_impl.exit, label %.thread

.thread:                                          ; preds = %5, %10
  %12 = phi ptr [ %11, %10 ], [ %2, %5 ]
  %13 = load ptr, ptr %12, align 8, !tbaa !13
  %14 = call i32 @PyLong_AsInt(ptr noundef %13) #4
  %15 = icmp eq i32 %14, -1
  br i1 %15, label %16, label %18

16:                                               ; preds = %.thread
  %17 = call ptr @PyErr_Occurred() #4
  %.not26 = icmp eq ptr %17, null
  br i1 %.not26, label %18, label %_curses_panel_panel_move_impl.exit

18:                                               ; preds = %16, %.thread
  %19 = getelementptr i8, ptr %12, i64 8
  %20 = load ptr, ptr %19, align 8, !tbaa !13
  %21 = call i32 @PyLong_AsInt(ptr noundef %20) #4
  %22 = icmp eq i32 %21, -1
  br i1 %22, label %27, label %.split

.split:                                           ; preds = %18
  %23 = call ptr @PyType_GetModuleState(ptr noundef %1) #4
  %24 = getelementptr inbounds nuw i8, ptr %0, i64 16
  %25 = load ptr, ptr %24, align 8, !tbaa !21
  %26 = call i32 @move_panel(ptr noundef %25, i32 noundef %14, i32 noundef %21) #4
  %.not.i.i = icmp eq i32 %26, -1
  br i1 %.not.i.i, label %_curses_panel_panel_move_impl.exit.sink.split, label %_curses_panel_panel_move_impl.exit

27:                                               ; preds = %18
  %28 = call ptr @PyErr_Occurred() #4
  %.not27 = icmp eq ptr %28, null
  br i1 %.not27, label %.split22, label %_curses_panel_panel_move_impl.exit

.split22:                                         ; preds = %27
  %29 = call ptr @PyType_GetModuleState(ptr noundef %1) #4
  %30 = getelementptr inbounds nuw i8, ptr %0, i64 16
  %31 = load ptr, ptr %30, align 8, !tbaa !21
  %32 = call i32 @move_panel(ptr noundef %31, i32 noundef %14, i32 noundef -1) #4
  %.not.i.i28 = icmp eq i32 %32, -1
  br i1 %.not.i.i28, label %_curses_panel_panel_move_impl.exit.sink.split, label %_curses_panel_panel_move_impl.exit

_curses_panel_panel_move_impl.exit.sink.split:    ; preds = %.split22, %.split
  %.sink32 = phi ptr [ %23, %.split ], [ %29, %.split22 ]
  %33 = load ptr, ptr %.sink32, align 8, !tbaa !9
  %34 = call ptr (ptr, ptr, ...) @PyErr_Format(ptr noundef %33, ptr noundef nonnull @.str.33, ptr noundef nonnull @.str.36) #4
  br label %_curses_panel_panel_move_impl.exit

_curses_panel_panel_move_impl.exit:               ; preds = %_curses_panel_panel_move_impl.exit.sink.split, %.split22, %.split, %27, %16, %10
  %.0 = phi ptr [ null, %16 ], [ null, %27 ], [ null, %10 ], [ @_Py_NoneStruct, %.split ], [ @_Py_NoneStruct, %.split22 ], [ null, %_curses_panel_panel_move_impl.exit.sink.split ]
  call void @llvm.lifetime.end.p0(i64 16, ptr nonnull %6) #4
  ret ptr %.0
}